target datalayout = "e-m:e-p270:32:32-p271:32:32-p272:64:64-i64:64-i128:128-f80:128-n8:16:32:64-S128"
target triple = "x86_64-pc-linux-gnu"

%class.TransTableL = type { %class.TransTable, i32, i32, i32, i32, i32, i32, %"struct.TransTableL::pageStatsType", [8192 x %"struct.TransTableL::aggrType"], [12 x [4 x ptr]], [12 x [4 x ptr]], ptr, ptr, %"struct.TransTableL::harvestedType", i32, i32 }
%class.TransTable = type { ptr }
%"struct.TransTableL::pageStatsType" = type { i32, i32, i32, i32, i32 }
%"struct.TransTableL::aggrType" = type { [4 x i32], [4 x [4 x i32]] }
%"struct.TransTableL::harvestedType" = type { i32, [1000 x ptr] }
%"struct.TransTableL::distHashType" = type { i32, i32, [32 x %"struct.TransTableL::posSearchType"] }
%"struct.TransTableL::posSearchType" = type { ptr, i64 }
%"struct.TransTableL::winBlockType" = type { i32, i32, i32, [125 x %"struct.TransTableL::winMatchType"] }
%"struct.TransTableL::winMatchType" = type { i32, i32, i32, i32, i32, i32, i32, i32, i32, i32, i32, %struct.nodeCardsType }
%struct.nodeCardsType = type { i8, i8, i8, i8, [4 x i8] }

; Function Attrs: mustprogress uwtable
define noundef ptr @_ZN11TransTableL10LookupSuitEPNS_12distHashTypeExRb(ptr noundef nonnull align 8 dereferenceable(664216) %0, ptr noundef %1, i64 noundef %2, ptr noundef nonnull align 1 dereferenceable(1) %3) #4 align 2 {
  %5 = alloca ptr, align 8
  %6 = alloca ptr, align 8
  %7 = alloca ptr, align 8
  %8 = alloca i64, align 8
  %9 = alloca ptr, align 8
  %10 = alloca i32, align 4
  %11 = alloca i32, align 4
  %12 = alloca i32, align 4
  %13 = alloca ptr, align 8
  store ptr %0, ptr %6, align 8
  store ptr %1, ptr %7, align 8
  store i64 %2, ptr %8, align 8
  store ptr %3, ptr %9, align 8
  %14 = load ptr, ptr %6, align 8
  %15 = load ptr, ptr %7, align 8
  %16 = getelementptr inbounds nuw %"struct.TransTableL::distHashType", ptr %15, i32 0, i32 0
  %17 = load i32, ptr %16, align 8
  store i32 %17, ptr %10, align 4
  store i32 0, ptr %11, align 4
  br label %18

18:                                               ; preds = %42, %4
  %19 = load i32, ptr %11, align 4
  %20 = load i32, ptr %10, align 4
  %21 = icmp slt i32 %19, %20
  br i1 %21, label %22, label %45

22:                                               ; preds = %18
  %23 = load ptr, ptr %7, align 8
  %24 = getelementptr inbounds nuw %"struct.TransTableL::distHashType", ptr %23, i32 0, i32 2
  %25 = load i32, ptr %11, align 4
  %26 = sext i32 %25 to i64
  %27 = getelementptr inbounds [32 x %"struct.TransTableL::posSearchType"], ptr %24, i64 0, i64 %26
  %28 = getelementptr inbounds nuw %"struct.TransTableL::posSearchType", ptr %27, i32 0, i32 1
  %29 = load i64, ptr %28, align 8
  %30 = load i64, ptr %8, align 8
  %31 = icmp eq i64 %29, %30
  br i1 %31, label %32, label %41

32:                                               ; preds = %22
  %33 = load ptr, ptr %9, align 8
  store i8 0, ptr %33, align 1
  %34 = load ptr, ptr %7, align 8
  %35 = getelementptr inbounds nuw %"struct.TransTableL::distHashType", ptr %34, i32 0, i32 2
  %36 = load i32, ptr %11, align 4
  %37 = sext i32 %36 to i64
  %38 = getelementptr inbounds [32 x %"struct.TransTableL::posSearchType"], ptr %35, i64 0, i64 %37
  %39 = getelementptr inbounds nuw %"struct.TransTableL::posSearchType", ptr %38, i32 0, i32 0
  %40 = load ptr, ptr %39, align 8
  store ptr %40, ptr %5, align 8
  br label %121

41:                                               ; preds = %22
  br label %42

42:                                               ; preds = %41
  %43 = load i32, ptr %11, align 4
  %44 = add nsw i32 %43, 1
  store i32 %44, ptr %11, align 4
  br label %18, !llvm.loop !24

45:                                               ; preds = %18
  %46 = load ptr, ptr %9, align 8
  store i8 1, ptr %46, align 1
  %47 = load i32, ptr %10, align 4
  %48 = icmp eq i32 %47, 32
  br i1 %48, label %49, label %63

49:                                               ; preds = %45
  %50 = load ptr, ptr %7, align 8
  %51 = getelementptr inbounds nuw %"struct.TransTableL::distHashType", ptr %50, i32 0, i32 1
  %52 = load i32, ptr %51, align 4
  %53 = icmp eq i32 %52, 32
  br i1 %53, label %54, label %57

54:                                               ; preds = %49
  store i32 0, ptr %12, align 4
  %55 = load ptr, ptr %7, align 8
  %56 = getelementptr inbounds nuw %"struct.TransTableL::distHashType", ptr %55, i32 0, i32 1
  store i32 1, ptr %56, align 4
  br label %62

57:                                               ; preds = %49
  %58 = load ptr, ptr %7, align 8
  %59 = getelementptr inbounds nuw %"struct.TransTableL::distHashType", ptr %58, i32 0, i32 1
  %60 = load i32, ptr %59, align 4
  %61 = add nsw i32 %60, 1
  store i32 %61, ptr %59, align 4
  store i32 %60, ptr %12, align 4
  br label %62

62:                                               ; preds = %57, %54
  br label %90

63:                                               ; preds = %45
  %64 = call noundef ptr @_ZN11TransTableL16GetNextCardBlockEv(ptr noundef nonnull align 8 dereferenceable(664216) %14)
  store ptr %64, ptr %13, align 8
  %65 = load ptr, ptr %7, align 8
  %66 = getelementptr inbounds nuw %"struct.TransTableL::distHashType", ptr %65, i32 0, i32 1
  %67 = load i32, ptr %66, align 4
  %68 = add nsw i32 %67, 1
  store i32 %68, ptr %66, align 4
  store i32 %67, ptr %12, align 4
  %69 = load ptr, ptr %13, align 8
  %70 = load ptr, ptr %7, align 8
  %71 = getelementptr inbounds nuw %"struct.TransTableL::distHashType", ptr %70, i32 0, i32 2
  %72 = load i32, ptr %12, align 4
  %73 = sext i32 %72 to i64
  %74 = getelementptr inbounds [32 x %"struct.TransTableL::posSearchType"], ptr %71, i64 0, i64 %73
  %75 = getelementptr inbounds nuw %"struct.TransTableL::posSearchType", ptr %74, i32 0, i32 0
  store ptr %69, ptr %75, align 8
  %76 = getelementptr inbounds nuw %class.TransTableL, ptr %14, i32 0, i32 14
  %77 = load i32, ptr %76, align 8
  %78 = load ptr, ptr %7, align 8
  %79 = getelementptr inbounds nuw %"struct.TransTableL::distHashType", ptr %78, i32 0, i32 2
  %80 = load i32, ptr %12, align 4
  %81 = sext i32 %80 to i64
  %82 = getelementptr inbounds [32 x %"struct.TransTableL::posSearchType"], ptr %79, i64 0, i64 %81
  %83 = getelementptr inbounds nuw %"struct.TransTableL::posSearchType", ptr %82, i32 0, i32 0
  %84 = load ptr, ptr %83, align 8
  %85 = getelementptr inbounds nuw %"struct.TransTableL::winBlockType", ptr %84, i32 0, i32 2
  store i32 %77, ptr %85, align 4
  %86 = load ptr, ptr %7, align 8
  %87 = getelementptr inbounds nuw %"struct.TransTableL::distHashType", ptr %86, i32 0, i32 0
  %88 = load i32, ptr %87, align 8
  %89 = add nsw i32 %88, 1
  store i32 %89, ptr %87, align 8
  br label %90

90:                                               ; preds = %63, %62
  %91 = load i64, ptr %8, align 8
  %92 = load ptr, ptr %7, align 8
  %93 = getelementptr inbounds nuw %"struct.TransTableL::distHashType", ptr %92, i32 0, i32 2
  %94 = load i32, ptr %12, align 4
  %95 = sext i32 %94 to i64
  %96 = getelementptr inbounds [32 x %"struct.TransTableL::posSearchType"], ptr %93, i64 0, i64 %95
  %97 = getelementptr inbounds nuw %"struct.TransTableL::posSearchType", ptr %96, i32 0, i32 1
  store i64 %91, ptr %97, align 8
  %98 = load ptr, ptr %7, align 8
  %99 = getelementptr inbounds nuw %"struct.TransTableL::distHashType", ptr %98, i32 0, i32 2
  %100 = load i32, ptr %12, align 4
  %101 = sext i32 %100 to i64
  %102 = getelementptr inbounds [32 x %"struct.TransTableL::posSearchType"], ptr %99, i64 0, i64 %101
  %103 = getelementptr inbounds nuw %"struct.TransTableL::posSearchType", ptr %102, i32 0, i32 0
  %104 = load ptr, ptr %103, align 8
  %105 = getelementptr inbounds nuw %"struct.TransTableL::winBlockType", ptr %104, i32 0, i32 0
  store i32 0, ptr %105, align 4
  %106 = load ptr, ptr %7, align 8
  %107 = getelementptr inbounds nuw %"struct.TransTableL::distHashType", ptr %106, i32 0, i32 2
  %108 = load i32, ptr %12, align 4
  %109 = sext i32 %108 to i64
  %110 = getelementptr inbounds [32 x %"struct.TransTableL::posSearchType"], ptr %107, i64 0, i64 %109
  %111 = getelementptr inbounds nuw %"struct.TransTableL::posSearchType", ptr %110, i32 0, i32 0
  %112 = load ptr, ptr %111, align 8
  %113 = getelementptr inbounds nuw %"struct.TransTableL::winBlockType", ptr %112, i32 0, i32 1
  store i32 0, ptr %113, align 4
  %114 = load ptr, ptr %7, align 8
  %115 = getelementptr inbounds nuw %"struct.TransTableL::distHashType", ptr %114, i32 0, i32 2
  %116 = load i32, ptr %12, align 4
  %117 = sext i32 %116 to i64
  %118 = getelementptr inbounds [32 x %"struct.TransTableL::posSearchType"], ptr %115, i64 0, i64 %117
  %119 = getelementptr inbounds nuw %"struct.TransTableL::posSearchType", ptr %118, i32 0, i32 0
  %120 = load ptr, ptr %119, align 8
  store ptr %120, ptr %5, align 8
  br label %121

121:                                              ; preds = %90, %32
  %122 = load ptr, ptr %5, align 8
  ret ptr %122
}