; Function Attrs: mustprogress nounwind uwtable
define noundef ptr @_ZN11TransTableL10LookupSuitEPNS_12distHashTypeExRb(ptr nocapture noundef nonnull align 8 dereferenceable(664216) %0, ptr nocapture noundef %1, i64 noundef %2, ptr nocapture noundef nonnull writeonly align 1 dereferenceable(1) %3) local_unnamed_addr #3 align 2 {
  %5 = load i32, ptr %1, align 8
  %6 = icmp sgt i32 %5, 0
  br i1 %6, label %.lr.ph, label %._crit_edge.thread

._crit_edge.thread:                               ; preds = %4
  store i8 1, ptr %3, align 1
  br label %23

.lr.ph:                                           ; preds = %4
  %7 = getelementptr inbounds nuw i8, ptr %1, i64 8
  %wide.trip.count = zext nneg i32 %5 to i64
  br label %9

8:                                                ; preds = %9
  %indvars.iv.next = add nuw nsw i64 %indvars.iv, 1
  %exitcond.not = icmp eq i64 %indvars.iv.next, %wide.trip.count
  br i1 %exitcond.not, label %._crit_edge, label %9, !llvm.loop !24

9:                                                ; preds = %.lr.ph, %8
  %indvars.iv = phi i64 [ 0, %.lr.ph ], [ %indvars.iv.next, %8 ]
  %10 = getelementptr inbounds [32 x %"struct.TransTableL::posSearchType"], ptr %7, i64 0, i64 %indvars.iv
  %11 = getelementptr inbounds nuw i8, ptr %10, i64 8
  %12 = load i64, ptr %11, align 8
  %13 = icmp eq i64 %12, %2
  br i1 %13, label %14, label %8

14:                                               ; preds = %9
  store i8 0, ptr %3, align 1
  br label %44

._crit_edge:                                      ; preds = %8
  store i8 1, ptr %3, align 1
  %15 = icmp eq i32 %5, 32
  br i1 %15, label %16, label %23

16:                                               ; preds = %._crit_edge
  %17 = getelementptr inbounds nuw i8, ptr %1, i64 4
  %18 = load i32, ptr %17, align 4
  %19 = icmp eq i32 %18, 32
  br i1 %19, label %20, label %21

20:                                               ; preds = %16
  store i32 1, ptr %17, align 4
  br label %36

21:                                               ; preds = %16
  %22 = add nsw i32 %18, 1
  store i32 %22, ptr %17, align 4
  br label %36

23:                                               ; preds = %._crit_edge.thread, %._crit_edge
  %24 = tail call noundef ptr @_ZN11TransTableL16GetNextCardBlockEv(ptr noundef nonnull align 8 dereferenceable(664216) %0)
  %25 = getelementptr inbounds nuw i8, ptr %1, i64 4
  %26 = load i32, ptr %25, align 4
  %27 = add nsw i32 %26, 1
  store i32 %27, ptr %25, align 4
  %28 = getelementptr inbounds nuw i8, ptr %1, i64 8
  %29 = sext i32 %26 to i64
  %30 = getelementptr inbounds [32 x %"struct.TransTableL::posSearchType"], ptr %28, i64 0, i64 %29
  store ptr %24, ptr %30, align 8
  %31 = getelementptr inbounds nuw i8, ptr %0, i64 664208
  %32 = load i32, ptr %31, align 8
  %33 = getelementptr inbounds nuw i8, ptr %24, i64 8
  store i32 %32, ptr %33, align 4
  %34 = load i32, ptr %1, align 8
  %35 = add nsw i32 %34, 1
  store i32 %35, ptr %1, align 8
  br label %36

36:                                               ; preds = %20, %21, %23
  %.032 = phi i32 [ 0, %20 ], [ %18, %21 ], [ %26, %23 ]
  %37 = getelementptr inbounds nuw i8, ptr %1, i64 8
  %38 = sext i32 %.032 to i64
  %39 = getelementptr inbounds [32 x %"struct.TransTableL::posSearchType"], ptr %37, i64 0, i64 %38
  %40 = getelementptr inbounds nuw i8, ptr %39, i64 8
  store i64 %2, ptr %40, align 8
  %41 = load ptr, ptr %39, align 8
  store i32 0, ptr %41, align 4
  %42 = load ptr, ptr %39, align 8
  %43 = getelementptr inbounds nuw i8, ptr %42, i64 4
  store i32 0, ptr %43, align 4
  br label %44

44:                                               ; preds = %36, %14
  %.0.in = phi ptr [ %10, %14 ], [ %39, %36 ]
  %.0 = load ptr, ptr %.0.in, align 8
  ret ptr %.0
}